target datalayout = "e-m:e-p270:32:32-p271:32:32-p272:64:64-i64:64-i128:128-f80:128-n8:16:32:64-S128"
target triple = "x86_64-unknown-linux-gnu"

%struct.grpc_channel_filter = type { ptr, ptr, ptr, ptr, i64, ptr, ptr, ptr, i64, ptr, ptr, ptr, ptr, ptr }
%struct.grpc_stream_refcount = type { %"class.grpc_core::RefCount", %struct.grpc_closure }
%"class.grpc_core::RefCount" = type { %"struct.std::atomic.0" }
%"struct.std::atomic.0" = type { %"struct.std::__atomic_base.1" }
%"struct.std::__atomic_base.1" = type { i64 }
%struct.grpc_closure = type { %union.anon, ptr, ptr, %union.anon.2 }
%union.anon = type { ptr }
%union.anon.2 = type { i64 }
%struct.grpc_call_element = type { ptr, ptr, ptr }
%struct.grpc_call_stack = type { %struct.grpc_stream_refcount, i64 }

; Function Attrs: mustprogress uwtable
define void @_Z23grpc_call_stack_destroyP15grpc_call_stackPK20grpc_call_final_infoP12grpc_closure(ptr noundef %stack, ptr noundef %final_info, ptr noundef %then_schedule_closure) #5 {
entry:
  %stack.addr = alloca ptr, align 8
  %final_info.addr = alloca ptr, align 8
  %then_schedule_closure.addr = alloca ptr, align 8
  %elems = alloca ptr, align 8
  %count = alloca i64, align 8
  %i = alloca i64, align 8
  store ptr %stack, ptr %stack.addr, align 8
  store ptr %final_info, ptr %final_info.addr, align 8
  store ptr %then_schedule_closure, ptr %then_schedule_closure.addr, align 8
  %0 = load ptr, ptr %stack.addr, align 8
  %add.ptr = getelementptr inbounds i8, ptr %0, i64 48
  store ptr %add.ptr, ptr %elems, align 8
  %1 = load ptr, ptr %stack.addr, align 8
  %count1 = getelementptr inbounds %struct.grpc_call_stack, ptr %1, i32 0, i32 1
  %2 = load i64, ptr %count1, align 8
  store i64 %2, ptr %count, align 8
  store i64 0, ptr %i, align 8
  br label %for.cond

for.cond:                                         ; preds = %for.inc, %entry
  %3 = load i64, ptr %i, align 8
  %4 = load i64, ptr %count, align 8
  %cmp = icmp ult i64 %3, %4
  br i1 %cmp, label %for.body, label %for.end

for.body:                                         ; preds = %for.cond
  %5 = load ptr, ptr %elems, align 8
  %6 = load i64, ptr %i, align 8
  %arrayidx = getelementptr inbounds %struct.grpc_call_element, ptr %5, i64 %6
  %filter = getelementptr inbounds %struct.grpc_call_element, ptr %arrayidx, i32 0, i32 0
  %7 = load ptr, ptr %filter, align 8
  %destroy_call_elem = getelementptr inbounds %struct.grpc_channel_filter, ptr %7, i32 0, i32 7
  %8 = load ptr, ptr %destroy_call_elem, align 8
  %9 = load ptr, ptr %elems, align 8
  %10 = load i64, ptr %i, align 8
  %arrayidx2 = getelementptr inbounds %struct.grpc_call_element, ptr %9, i64 %10
  %11 = load ptr, ptr %final_info.addr, align 8
  %12 = load i64, ptr %i, align 8
  %13 = load i64, ptr %count, align 8
  %sub = sub i64 %13, 1
  %cmp3 = icmp eq i64 %12, %sub
  br i1 %cmp3, label %cond.true, label %cond.false

cond.true:                                        ; preds = %for.body
  %14 = load ptr, ptr %then_schedule_closure.addr, align 8
  br label %cond.end

cond.false:                                       ; preds = %for.body
  br label %cond.end

cond.end:                                         ; preds = %cond.false, %cond.true
  %cond = phi ptr [ %14, %cond.true ], [ null, %cond.false ]
  call void %8(ptr noundef %arrayidx2, ptr noundef %11, ptr noundef %cond)
  br label %for.inc

for.inc:                                          ; preds = %cond.end
  %15 = load i64, ptr %i, align 8
  %inc = add i64 %15, 1
  store i64 %inc, ptr %i, align 8
  br label %for.cond, !llvm.loop !13

for.end:                                          ; preds = %for.cond
  ret void
}