; Function Attrs: mustprogress uwtable
define void @_Z23grpc_call_stack_destroyP15grpc_call_stackPK20grpc_call_final_infoP12grpc_closure(ptr noundef %stack, ptr noundef %final_info, ptr noundef %then_schedule_closure) local_unnamed_addr #6 {
entry:
  %add.ptr = getelementptr inbounds i8, ptr %stack, i64 48
  %count1 = getelementptr inbounds i8, ptr %stack, i64 40
  %0 = load i64, ptr %count1, align 8
  %cmp8.not = icmp eq i64 %0, 0
  br i1 %cmp8.not, label %for.end, label %for.body.lr.ph

for.body.lr.ph:                                   ; preds = %entry
  %sub = add i64 %0, -1
  br label %for.body

for.body:                                         ; preds = %for.body.lr.ph, %for.body
  %i.09 = phi i64 [ 0, %for.body.lr.ph ], [ %inc, %for.body ]
  %arrayidx = getelementptr inbounds %struct.grpc_call_element, ptr %add.ptr, i64 %i.09
  %1 = load ptr, ptr %arrayidx, align 8
  %destroy_call_elem = getelementptr inbounds i8, ptr %1, i64 56
  %2 = load ptr, ptr %destroy_call_elem, align 8
  %cmp3 = icmp eq i64 %i.09, %sub
  %cond = select i1 %cmp3, ptr %then_schedule_closure, ptr null
  tail call void %2(ptr noundef nonnull %arrayidx, ptr noundef %final_info, ptr noundef %cond)
  %inc = add nuw i64 %i.09, 1
  %exitcond.not = icmp eq i64 %inc, %0
  br i1 %exitcond.not, label %for.end, label %for.body, !llvm.loop !19

for.end:                                          ; preds = %for.body, %entry
  ret void
}